target datalayout = "e-m:e-p270:32:32-p271:32:32-p272:64:64-i64:64-i128:128-f80:128-n8:16:32:64-S128"
target triple = "x86_64-unknown-linux-gnu"

%"class.std::basic_istream" = type { ptr, i64, %"class.std::basic_ios" }
%"class.std::basic_ios" = type { %"class.std::ios_base", ptr, i8, i8, ptr, ptr, ptr, ptr }
%"class.std::ios_base" = type { ptr, i64, i64, i32, i32, i32, ptr, %"struct.std::ios_base::_Words", [8 x %"struct.std::ios_base::_Words"], i32, ptr, %"class.std::locale" }
%"struct.std::ios_base::_Words" = type { ptr, i64 }
%"class.std::locale" = type { ptr }
%"class.std::basic_ostream" = type { ptr, %"class.std::basic_ios" }
%class.veloxtpFlexLexer = type <{ %class.FlexLexer.base, i32, i32, [4 x i8], ptr, %"class.std::basic_istream", %"class.std::basic_ostream", i8, [3 x i8], i32, ptr, i32, i32, i32, [4 x i8], i64, i64, ptr, i32, [4 x i8], ptr, ptr, ptr, ptr, ptr, i32, i32, i32, i32, i32, i32, i32, [4 x i8] }>
%class.FlexLexer.base = type <{ ptr, ptr, i32, i32, i32 }>

; Function Attrs: mustprogress uwtable
define noundef i32 @_ZN16veloxtpFlexLexer10LexerInputEPci(ptr noundef nonnull align 8 dereferenceable(732) %this, ptr noundef %buf, i32 noundef %max_size) unnamed_addr #5 align 2 {
entry:
  %retval = alloca i32, align 4
  %this.addr = alloca ptr, align 8
  %buf.addr = alloca ptr, align 8
  %max_size.addr = alloca i32, align 4
  store ptr %this, ptr %this.addr, align 8
  store ptr %buf, ptr %buf.addr, align 8
  store i32 %max_size, ptr %max_size.addr, align 4
  %this1 = load ptr, ptr %this.addr, align 8
  %yyin = getelementptr inbounds %class.veloxtpFlexLexer, ptr %this1, i32 0, i32 5
  %vtable = load ptr, ptr %yyin, align 8
  %vbase.offset.ptr = getelementptr i8, ptr %vtable, i64 -24
  %vbase.offset = load i64, ptr %vbase.offset.ptr, align 8
  %add.ptr = getelementptr inbounds i8, ptr %yyin, i64 %vbase.offset
  %call = call noundef zeroext i1 @_ZNKSt9basic_iosIcSt11char_traitsIcEE3eofEv(ptr noundef nonnull align 8 dereferenceable(264) %add.ptr)
  br i1 %call, label %if.then, label %lor.lhs.false

lor.lhs.false:                                    ; preds = %entry
  %yyin2 = getelementptr inbounds %class.veloxtpFlexLexer, ptr %this1, i32 0, i32 5
  %vtable3 = load ptr, ptr %yyin2, align 8
  %vbase.offset.ptr4 = getelementptr i8, ptr %vtable3, i64 -24
  %vbase.offset5 = load i64, ptr %vbase.offset.ptr4, align 8
  %add.ptr6 = getelementptr inbounds i8, ptr %yyin2, i64 %vbase.offset5
  %call7 = call noundef zeroext i1 @_ZNKSt9basic_iosIcSt11char_traitsIcEE4failEv(ptr noundef nonnull align 8 dereferenceable(264) %add.ptr6)
  br i1 %call7, label %if.then, label %if.end

if.then:                                          ; preds = %lor.lhs.false, %entry
  store i32 0, ptr %retval, align 4
  br label %return

if.end:                                           ; preds = %lor.lhs.false
  %yyin8 = getelementptr inbounds %class.veloxtpFlexLexer, ptr %this1, i32 0, i32 5
  %0 = load ptr, ptr %buf.addr, align 8
  %1 = load i32, ptr %max_size.addr, align 4
  %conv = sext i32 %1 to i64
  %call9 = call noundef nonnull align 8 dereferenceable(16) ptr @_ZNSi4readEPcl(ptr noundef nonnull align 8 dereferenceable(16) %yyin8, ptr noundef %0, i64 noundef %conv)
  %yyin10 = getelementptr inbounds %class.veloxtpFlexLexer, ptr %this1, i32 0, i32 5
  %vtable11 = load ptr, ptr %yyin10, align 8
  %vbase.offset.ptr12 = getelementptr i8, ptr %vtable11, i64 -24
  %vbase.offset13 = load i64, ptr %vbase.offset.ptr12, align 8
  %add.ptr14 = getelementptr inbounds i8, ptr %yyin10, i64 %vbase.offset13
  %call15 = call noundef zeroext i1 @_ZNKSt9basic_iosIcSt11char_traitsIcEE3badEv(ptr noundef nonnull align 8 dereferenceable(264) %add.ptr14)
  br i1 %call15, label %if.then16, label %if.else

if.then16:                                        ; preds = %if.end
  store i32 -1, ptr %retval, align 4
  br label %return

if.else:                                          ; preds = %if.end
  %yyin17 = getelementptr inbounds %class.veloxtpFlexLexer, ptr %this1, i32 0, i32 5
  %call18 = call noundef i64 @_ZNKSi6gcountEv(ptr noundef nonnull align 8 dereferenceable(16) %yyin17)
  %conv19 = trunc i64 %call18 to i32
  store i32 %conv19, ptr %retval, align 4
  br label %return

return:                                           ; preds = %if.else, %if.then16, %if.then
  %2 = load i32, ptr %retval, align 4
  ret i32 %2
}