; Function Attrs: mustprogress uwtable
define noundef i32 @_ZN16veloxtpFlexLexer10LexerInputEPci(ptr noundef nonnull align 8 dereferenceable(732) %this, ptr noundef %buf, i32 noundef %max_size) unnamed_addr #4 align 2 {
entry:
  %yyin = getelementptr inbounds i8, ptr %this, i64 48
  %vtable = load ptr, ptr %yyin, align 8
  %vbase.offset.ptr = getelementptr i8, ptr %vtable, i64 -24
  %vbase.offset = load i64, ptr %vbase.offset.ptr, align 8
  %add.ptr = getelementptr inbounds i8, ptr %yyin, i64 %vbase.offset
  %call = tail call noundef zeroext i1 @_ZNKSt9basic_iosIcSt11char_traitsIcEE3eofEv(ptr noundef nonnull align 8 dereferenceable(264) %add.ptr)
  br i1 %call, label %return, label %lor.lhs.false

lor.lhs.false:                                    ; preds = %entry
  %vtable3 = load ptr, ptr %yyin, align 8
  %vbase.offset.ptr4 = getelementptr i8, ptr %vtable3, i64 -24
  %vbase.offset5 = load i64, ptr %vbase.offset.ptr4, align 8
  %add.ptr6 = getelementptr inbounds i8, ptr %yyin, i64 %vbase.offset5
  %call7 = tail call noundef zeroext i1 @_ZNKSt9basic_iosIcSt11char_traitsIcEE4failEv(ptr noundef nonnull align 8 dereferenceable(264) %add.ptr6)
  br i1 %call7, label %return, label %if.end

if.end:                                           ; preds = %lor.lhs.false
  %conv = sext i32 %max_size to i64
  %call9 = tail call noundef nonnull align 8 dereferenceable(16) ptr @_ZNSi4readEPcl(ptr noundef nonnull align 8 dereferenceable(16) %yyin, ptr noundef %buf, i64 noundef %conv)
  %vtable11 = load ptr, ptr %yyin, align 8
  %vbase.offset.ptr12 = getelementptr i8, ptr %vtable11, i64 -24
  %vbase.offset13 = load i64, ptr %vbase.offset.ptr12, align 8
  %add.ptr14 = getelementptr inbounds i8, ptr %yyin, i64 %vbase.offset13
  %call15 = tail call noundef zeroext i1 @_ZNKSt9basic_iosIcSt11char_traitsIcEE3badEv(ptr noundef nonnull align 8 dereferenceable(264) %add.ptr14)
  br i1 %call15, label %return, label %if.else

if.else:                                          ; preds = %if.end
  %call18 = tail call noundef i64 @_ZNKSi6gcountEv(ptr noundef nonnull align 8 dereferenceable(16) %yyin)
  %conv19 = trunc i64 %call18 to i32
  br label %return

return:                                           ; preds = %if.end, %entry, %lor.lhs.false, %if.else
  %retval.0 = phi i32 [ %conv19, %if.else ], [ 0, %lor.lhs.false ], [ 0, %entry ], [ -1, %if.end ]
  ret i32 %retval.0
}